target datalayout = "e-m:e-p270:32:32-p271:32:32-p272:64:64-i64:64-i128:128-f80:128-n8:16:32:64-S128"
target triple = "x86_64-pc-linux-gnu"

%"class.ZXing::Result" = type <{ %"class.ZXing::Content", %"class.ZXing::Error", %"class.ZXing::Quadrilateral", %"class.ZXing::ReaderOptions", [4 x i8], %"struct.ZXing::StructuredAppendInfo", i32, [4 x i8], [4 x i8], i32, i8, i8, i8, [5 x i8] }>
%"class.ZXing::Content" = type <{ %"class.ZXing::ByteArray", %"class.std::vector.41", %"struct.ZXing::SymbologyIdentifier", i8, i8, [2 x i8] }>
%"class.ZXing::ByteArray" = type { %"class.std::vector" }
%"class.std::vector" = type { %"struct.std::_Vector_base" }
%"struct.std::_Vector_base" = type { %"struct.std::_Vector_base<unsigned char, std::allocator<unsigned char>>::_Vector_impl" }
%"struct.std::_Vector_base<unsigned char, std::allocator<unsigned char>>::_Vector_impl" = type { %"struct.std::_Vector_base<unsigned char, std::allocator<unsigned char>>::_Vector_impl_data" }
%"struct.std::_Vector_base<unsigned char, std::allocator<unsigned char>>::_Vector_impl_data" = type { ptr, ptr, ptr }
%"class.std::vector.41" = type { %"struct.std::_Vector_base.42" }
%"struct.std::_Vector_base.42" = type { %"struct.std::_Vector_base<ZXing::Content::Encoding, std::allocator<ZXing::Content::Encoding>>::_Vector_impl" }
%"struct.std::_Vector_base<ZXing::Content::Encoding, std::allocator<ZXing::Content::Encoding>>::_Vector_impl" = type { %"struct.std::_Vector_base<ZXing::Content::Encoding, std::allocator<ZXing::Content::Encoding>>::_Vector_impl_data" }
%"struct.std::_Vector_base<ZXing::Content::Encoding, std::allocator<ZXing::Content::Encoding>>::_Vector_impl_data" = type { ptr, ptr, ptr }
%"struct.ZXing::SymbologyIdentifier" = type { i8, i8, i8, i8 }
%"class.ZXing::Error" = type <{ %"class.std::__cxx11::basic_string", ptr, i16, i8, [5 x i8] }>
%"class.std::__cxx11::basic_string" = type { %"struct.std::__cxx11::basic_string<char>::_Alloc_hider", i64, %union.anon.49 }
%"struct.std::__cxx11::basic_string<char>::_Alloc_hider" = type { ptr }
%union.anon.49 = type { i64, [8 x i8] }
%"class.ZXing::Quadrilateral" = type { %"struct.std::array" }
%"struct.std::array" = type { [4 x %"struct.ZXing::PointT"] }
%"struct.ZXing::PointT" = type { i32, i32 }
%"class.ZXing::ReaderOptions" = type { i32, i8, i8, i16, %"class.ZXing::Flags" }
%"class.ZXing::Flags" = type { i32 }
%"struct.ZXing::StructuredAppendInfo" = type { i32, i32, %"class.std::__cxx11::basic_string" }
%"class.std::vector.50" = type { %"struct.std::_Vector_base.51" }
%"struct.std::_Vector_base.51" = type { %"struct.std::_Vector_base<ZXing::Result, std::allocator<ZXing::Result>>::_Vector_impl" }
%"struct.std::_Vector_base<ZXing::Result, std::allocator<ZXing::Result>>::_Vector_impl" = type { %"struct.std::_Vector_base<ZXing::Result, std::allocator<ZXing::Result>>::_Vector_impl_data" }
%"struct.std::_Vector_base<ZXing::Result, std::allocator<ZXing::Result>>::_Vector_impl_data" = type { ptr, ptr, ptr }

; Function Attrs: mustprogress nounwind uwtable
define linkonce_odr noundef nonnull align 4 dereferenceable(12) ptr @_ZNO5ZXing13ReaderOptions21setMaxNumberOfSymbolsEh(ptr noundef nonnull align 4 dereferenceable(12) %0, i8 noundef zeroext %1) #1 comdat align 2 {
  %3 = alloca ptr, align 8
  %4 = alloca i8, align 1
  store ptr %0, ptr %3, align 8, !tbaa !8
  store i8 %1, ptr %4, align 1, !tbaa !26
  %5 = load ptr, ptr %3, align 8
  %6 = load i8, ptr %4, align 1, !tbaa !26
  %7 = getelementptr inbounds nuw %"class.ZXing::ReaderOptions", ptr %5, i32 0, i32 2
  store i8 %6, ptr %7, align 1, !tbaa !80
  ret ptr %5
}

; Function Attrs: mustprogress uwtable
define void @_ZN5ZXing11ReadBarcodeERKNS_9ImageViewERKNS_13ReaderOptionsE(ptr dead_on_unwind noalias writable sret(%"class.ZXing::Result") align 8 %0, ptr noundef nonnull align 8 dereferenceable(28) %1, ptr noundef nonnull align 4 dereferenceable(12) %2) #0 personality ptr @__gxx_personality_v0 {
  %4 = alloca ptr, align 8
  %5 = alloca ptr, align 8
  %6 = alloca ptr, align 8
  %7 = alloca %"class.std::vector.50", align 8
  %8 = alloca %"class.ZXing::ReaderOptions", align 4
  %9 = alloca ptr, align 8
  %10 = alloca i32, align 4
  store ptr %0, ptr %4, align 8
  store ptr %1, ptr %5, align 8, !tbaa !21
  store ptr %2, ptr %6, align 8, !tbaa !8
  call void @llvm.lifetime.start.p0(i64 24, ptr %7) #17
  %11 = load ptr, ptr %5, align 8, !tbaa !21
  call void @llvm.lifetime.start.p0(i64 12, ptr %8) #17
  %12 = load ptr, ptr %6, align 8, !tbaa !8
  call void @llvm.memcpy.p0.p0.i64(ptr align 4 %8, ptr align 4 %12, i64 12, i1 false), !tbaa.struct !65
  %13 = call noundef nonnull align 4 dereferenceable(12) ptr @_ZNO5ZXing13ReaderOptions21setMaxNumberOfSymbolsEh(ptr noundef nonnull align 4 dereferenceable(12) %8, i8 noundef zeroext 1)
  call void @_ZN5ZXing12ReadBarcodesERKNS_9ImageViewERKNS_13ReaderOptionsE(ptr dead_on_unwind writable sret(%"class.std::vector.50") align 8 %7, ptr noundef nonnull align 8 dereferenceable(28) %11, ptr noundef nonnull align 4 dereferenceable(12) %13)
  invoke void @_ZN5ZXing14FirstOrDefaultITtTpTyESt6vectorJNS_6ResultESaIS2_EEEEDaOT_IJDpT0_EE(ptr dead_on_unwind writable sret(%"class.ZXing::Result") align 8 %0, ptr noundef nonnull align 8 dereferenceable(24) %7)
          to label %14 unwind label %15

14:                                               ; preds = %3
  call void @_ZNSt6vectorIN5ZXing6ResultESaIS1_EED2Ev(ptr noundef nonnull align 8 dereferenceable(24) %7) #17
  call void @llvm.lifetime.end.p0(i64 12, ptr %8) #17
  call void @llvm.lifetime.end.p0(i64 24, ptr %7) #17
  ret void

15:                                               ; preds = %3
  %16 = landingpad { ptr, i32 }
          cleanup
  %17 = extractvalue { ptr, i32 } %16, 0
  store ptr %17, ptr %9, align 8
  %18 = extractvalue { ptr, i32 } %16, 1
  store i32 %18, ptr %10, align 4
  call void @_ZNSt6vectorIN5ZXing6ResultESaIS1_EED2Ev(ptr noundef nonnull align 8 dereferenceable(24) %7) #17
  call void @llvm.lifetime.end.p0(i64 12, ptr %8) #17
  call void @llvm.lifetime.end.p0(i64 24, ptr %7) #17
  br label %19

19:                                               ; preds = %15
  %20 = load ptr, ptr %9, align 8
  %21 = load i32, ptr %10, align 4
  %22 = insertvalue { ptr, i32 } poison, ptr %20, 0
  %23 = insertvalue { ptr, i32 } %22, i32 %21, 1
  resume { ptr, i32 } %23
}