; Function Attrs: mustprogress uwtable
define void @_ZN5ZXing11ReadBarcodeERKNS_9ImageViewERKNS_13ReaderOptionsE(ptr dead_on_unwind noalias writable sret(%"class.ZXing::Result") align 8 %0, ptr noundef nonnull readonly align 8 captures(none) dereferenceable(28) %1, ptr noundef nonnull readonly align 4 captures(none) dereferenceable(12) %2) local_unnamed_addr #0 personality ptr @__gxx_personality_v0 {
  %4 = alloca %"class.std::vector.50", align 8
  %5 = alloca %"class.ZXing::ReaderOptions", align 4
  call void @llvm.lifetime.start.p0(i64 24, ptr nonnull %4) #20
  call void @llvm.lifetime.start.p0(i64 12, ptr nonnull %5) #20
  call void @llvm.memcpy.p0.p0.i64(ptr noundef nonnull align 4 dereferenceable(12) %5, ptr noundef nonnull align 4 dereferenceable(12) %2, i64 12, i1 false), !tbaa.struct !92
  %6 = getelementptr inbounds nuw i8, ptr %5, i64 5
  store i8 1, ptr %6, align 1, !tbaa !95
  call void @_ZN5ZXing12ReadBarcodesERKNS_9ImageViewERKNS_13ReaderOptionsE(ptr dead_on_unwind nonnull writable sret(%"class.std::vector.50") align 8 %4, ptr noundef nonnull align 8 dereferenceable(28) %1, ptr noundef nonnull align 4 dereferenceable(12) %5)
  invoke void @_ZN5ZXing14FirstOrDefaultITtTpTyESt6vectorJNS_6ResultESaIS2_EEEEDaOT_IJDpT0_EE(ptr dead_on_unwind writable sret(%"class.ZXing::Result") align 8 %0, ptr noundef nonnull align 8 dereferenceable(24) %4)
          to label %7 unwind label %8

7:                                                ; preds = %3
  call void @_ZNSt6vectorIN5ZXing6ResultESaIS1_EED2Ev(ptr noundef nonnull align 8 dereferenceable(24) %4) #20
  call void @llvm.lifetime.end.p0(i64 12, ptr nonnull %5) #20
  call void @llvm.lifetime.end.p0(i64 24, ptr nonnull %4) #20
  ret void

8:                                                ; preds = %3
  %9 = landingpad { ptr, i32 }
          cleanup
  call void @_ZNSt6vectorIN5ZXing6ResultESaIS1_EED2Ev(ptr noundef nonnull align 8 dereferenceable(24) %4) #20
  call void @llvm.lifetime.end.p0(i64 12, ptr nonnull %5) #20
  call void @llvm.lifetime.end.p0(i64 24, ptr nonnull %4) #20
  resume { ptr, i32 } %9
}